target datalayout = "e-m:e-p270:32:32-p271:32:32-p272:64:64-i64:64-i128:128-f80:128-n8:16:32:64-S128"
target triple = "x86_64-pc-linux-gnu"

%struct.mbedtls_ssl_context = type { ptr, i32, i32, i32, i32, i32, ptr, ptr, ptr, ptr, ptr, ptr, ptr, ptr, ptr, ptr, ptr, ptr, ptr, ptr, ptr, ptr, ptr, ptr, ptr, ptr, ptr, ptr, ptr, ptr, ptr, ptr, ptr, i32, i64, i64, i16, i64, i64, i64, i64, i32, i32, i8, i8, i32, i8, ptr, ptr, ptr, ptr, ptr, ptr, ptr, i32, i64, i64, [8 x i8], i16, ptr, ptr, ptr, i64, i32, i64, [12 x i8], [12 x i8], [32 x i8], i8, i8, ptr, ptr, %union.mbedtls_ssl_user_data_t }
%union.mbedtls_ssl_user_data_t = type { i64 }

@.str = private unnamed_addr constant [121 x i8] c"generated/home/dtcxzyw/WorkSpace/Projects/compilers/llvm-opt-benchmark/bench/lief/bench_build/mbed_src/library/ssl_msg.c\00", align 1
@.str.118 = private unnamed_addr constant [28 x i8] c"=> write change cipher spec\00", align 1
@.str.119 = private unnamed_addr constant [32 x i8] c"mbedtls_ssl_write_handshake_msg\00", align 1
@.str.120 = private unnamed_addr constant [28 x i8] c"<= write change cipher spec\00", align 1

; Function Attrs: inlinehint nounwind uwtable
define internal i32 @mbedtls_ssl_write_handshake_msg(ptr noundef %0) #4 {
  %2 = alloca ptr, align 8
  store ptr %0, ptr %2, align 8, !tbaa !3
  %3 = load ptr, ptr %2, align 8, !tbaa !3
  %4 = call i32 @mbedtls_ssl_write_handshake_msg_ext(ptr noundef %3, i32 noundef 1, i32 noundef 1)
  ret i32 %4
}

; Function Attrs: nounwind uwtable
define hidden i32 @mbedtls_ssl_write_change_cipher_spec(ptr noundef %0) #0 {
  %2 = alloca i32, align 4
  %3 = alloca ptr, align 8
  %4 = alloca i32, align 4
  %5 = alloca i32, align 4
  store ptr %0, ptr %3, align 8, !tbaa !3
  call void @llvm.lifetime.start.p0(i64 4, ptr %4) #11
  store i32 -110, ptr %4, align 4, !tbaa !8
  %6 = load ptr, ptr %3, align 8, !tbaa !3
  call void (ptr, i32, ptr, i32, ptr, ...) @mbedtls_debug_print_msg(ptr noundef %6, i32 noundef 2, ptr noundef @.str, i32 noundef 5189, ptr noundef @.str.118)
  %7 = load ptr, ptr %3, align 8, !tbaa !3
  %8 = getelementptr inbounds nuw %struct.mbedtls_ssl_context, ptr %7, i32 0, i32 54
  store i32 20, ptr %8, align 8, !tbaa !125
  %9 = load ptr, ptr %3, align 8, !tbaa !3
  %10 = getelementptr inbounds nuw %struct.mbedtls_ssl_context, ptr %9, i32 0, i32 55
  store i64 1, ptr %10, align 8, !tbaa !102
  %11 = load ptr, ptr %3, align 8, !tbaa !3
  %12 = getelementptr inbounds nuw %struct.mbedtls_ssl_context, ptr %11, i32 0, i32 53
  %13 = load ptr, ptr %12, align 8, !tbaa !111
  %14 = getelementptr inbounds i8, ptr %13, i64 0
  store i8 1, ptr %14, align 1, !tbaa !38
  %15 = load ptr, ptr %3, align 8, !tbaa !3
  %16 = getelementptr inbounds nuw %struct.mbedtls_ssl_context, ptr %15, i32 0, i32 1
  %17 = load i32, ptr %16, align 8, !tbaa !93
  %18 = add nsw i32 %17, 1
  store i32 %18, ptr %16, align 8, !tbaa !93
  %19 = load ptr, ptr %3, align 8, !tbaa !3
  %20 = call i32 @mbedtls_ssl_write_handshake_msg(ptr noundef %19)
  store i32 %20, ptr %4, align 4, !tbaa !8
  %21 = icmp ne i32 %20, 0
  br i1 %21, label %22, label %26

22:                                               ; preds = %1
  %23 = load ptr, ptr %3, align 8, !tbaa !3
  %24 = load i32, ptr %4, align 4, !tbaa !8
  call void @mbedtls_debug_print_ret(ptr noundef %23, i32 noundef 1, ptr noundef @.str, i32 noundef 5198, ptr noundef @.str.119, i32 noundef %24)
  %25 = load i32, ptr %4, align 4, !tbaa !8
  store i32 %25, ptr %2, align 4
  store i32 1, ptr %5, align 4
  br label %28

26:                                               ; preds = %1
  %27 = load ptr, ptr %3, align 8, !tbaa !3
  call void (ptr, i32, ptr, i32, ptr, ...) @mbedtls_debug_print_msg(ptr noundef %27, i32 noundef 2, ptr noundef @.str, i32 noundef 5202, ptr noundef @.str.120)
  store i32 0, ptr %2, align 4
  store i32 1, ptr %5, align 4
  br label %28

28:                                               ; preds = %26, %22
  call void @llvm.lifetime.end.p0(i64 4, ptr %4) #11
  %29 = load i32, ptr %2, align 4
  ret i32 %29
}