; Function Attrs: nounwind uwtable
define hidden i32 @mbedtls_ssl_write_change_cipher_spec(ptr noundef %0) local_unnamed_addr #0 {
  tail call void (ptr, i32, ptr, i32, ptr, ...) @mbedtls_debug_print_msg(ptr noundef %0, i32 noundef 2, ptr noundef nonnull @.str, i32 noundef 5189, ptr noundef nonnull @.str.118) #19
  %2 = getelementptr inbounds nuw i8, ptr %0, i64 392
  store i32 20, ptr %2, align 8, !tbaa !118
  %3 = getelementptr inbounds nuw i8, ptr %0, i64 400
  store i64 1, ptr %3, align 8, !tbaa !98
  %4 = getelementptr inbounds nuw i8, ptr %0, i64 384
  %5 = load ptr, ptr %4, align 8, !tbaa !105
  store i8 1, ptr %5, align 1, !tbaa !32
  %6 = getelementptr inbounds nuw i8, ptr %0, i64 8
  %7 = load i32, ptr %6, align 8, !tbaa !74
  %8 = add nsw i32 %7, 1
  store i32 %8, ptr %6, align 8, !tbaa !74
  %9 = tail call i32 @mbedtls_ssl_write_handshake_msg_ext(ptr noundef %0, i32 noundef 1, i32 noundef 1)
  %.not = icmp eq i32 %9, 0
  br i1 %.not, label %11, label %10

10:                                               ; preds = %1
  tail call void @mbedtls_debug_print_ret(ptr noundef nonnull %0, i32 noundef 1, ptr noundef nonnull @.str, i32 noundef 5198, ptr noundef nonnull @.str.119, i32 noundef %9) #19
  br label %12

11:                                               ; preds = %1
  tail call void (ptr, i32, ptr, i32, ptr, ...) @mbedtls_debug_print_msg(ptr noundef nonnull %0, i32 noundef 2, ptr noundef nonnull @.str, i32 noundef 5202, ptr noundef nonnull @.str.120) #19
  br label %12

12:                                               ; preds = %11, %10
  ret i32 %9
}